; Function Attrs: nounwind uwtable
define dso_local void @discardCommand(ptr noundef %0) local_unnamed_addr #1 {
  %2 = getelementptr inbounds nuw i8, ptr %0, i64 8
  %3 = load i64, ptr %2, align 8, !tbaa !38
  %4 = and i64 %3, 8
  %.not = icmp eq i64 %4, 0
  br i1 %.not, label %5, label %6

5:                                                ; preds = %1
  tail call void @addReplyError(ptr noundef nonnull %0, ptr noundef nonnull @.str.1) #10
  br label %32

6:                                                ; preds = %1
  %7 = getelementptr inbounds nuw i8, ptr %0, i64 440
  %8 = getelementptr inbounds nuw i8, ptr %0, i64 448
  %9 = load i32, ptr %8, align 8, !tbaa !29
  %10 = icmp sgt i32 %9, 0
  br i1 %10, label %.lr.ph15.i.i, label %discardTransaction.exit

.lr.ph15.i.i:                                     ; preds = %6, %._crit_edge.i.i
  %indvars.iv18.i.i = phi i64 [ %indvars.iv.next19.i.i, %._crit_edge.i.i ], [ 0, %6 ]
  %11 = load ptr, ptr %7, align 8, !tbaa !30
  %12 = getelementptr inbounds nuw %struct.multiCmd, ptr %11, i64 %indvars.iv18.i.i
  %13 = getelementptr inbounds nuw i8, ptr %12, i64 12
  %14 = load i32, ptr %13, align 4, !tbaa !31
  %15 = icmp sgt i32 %14, 0
  br i1 %15, label %.lr.ph.i.i, label %._crit_edge.i.i

.lr.ph.i.i:                                       ; preds = %.lr.ph15.i.i, %.lr.ph.i.i
  %indvars.iv.i.i = phi i64 [ %indvars.iv.next.i.i, %.lr.ph.i.i ], [ 0, %.lr.ph15.i.i ]
  %16 = load ptr, ptr %12, align 8, !tbaa !33
  %17 = getelementptr inbounds nuw ptr, ptr %16, i64 %indvars.iv.i.i
  %18 = load ptr, ptr %17, align 8, !tbaa !34
  tail call void @decrRefCount(ptr noundef %18) #10
  %indvars.iv.next.i.i = add nuw nsw i64 %indvars.iv.i.i, 1
  %19 = load i32, ptr %13, align 4, !tbaa !31
  %20 = sext i32 %19 to i64
  %21 = icmp slt i64 %indvars.iv.next.i.i, %20
  br i1 %21, label %.lr.ph.i.i, label %._crit_edge.i.i, !llvm.loop !35

._crit_edge.i.i:                                  ; preds = %.lr.ph.i.i, %.lr.ph15.i.i
  %22 = load ptr, ptr %12, align 8, !tbaa !33
  tail call void @zfree(ptr noundef %22) #10
  %indvars.iv.next19.i.i = add nuw nsw i64 %indvars.iv18.i.i, 1
  %23 = load i32, ptr %8, align 8, !tbaa !29
  %24 = sext i32 %23 to i64
  %25 = icmp slt i64 %indvars.iv.next19.i.i, %24
  br i1 %25, label %.lr.ph15.i.i, label %discardTransaction.exit, !llvm.loop !37

discardTransaction.exit:                          ; preds = %._crit_edge.i.i, %6
  %26 = load ptr, ptr %7, align 8, !tbaa !30
  tail call void @zfree(ptr noundef %26) #10
  %27 = getelementptr inbounds nuw i8, ptr %0, i64 464
  store i64 0, ptr %27, align 8, !tbaa !5
  %28 = getelementptr inbounds nuw i8, ptr %0, i64 472
  store i32 0, ptr %28, align 8, !tbaa !28
  tail call void @llvm.memset.p0.i64(ptr noundef nonnull align 8 dereferenceable(20) %7, i8 0, i64 20, i1 false)
  %29 = load i64, ptr %2, align 8, !tbaa !38
  %30 = and i64 %29, -4137
  store i64 %30, ptr %2, align 8, !tbaa !38
  tail call void @unwatchAllKeys(ptr noundef nonnull %0)
  %31 = load ptr, ptr @shared, align 8, !tbaa !81
  tail call void @addReply(ptr noundef nonnull %0, ptr noundef %31) #10
  br label %32

32:                                               ; preds = %discardTransaction.exit, %5
  ret void
}